(dp0
S'b'
p1
(dp2
I1
(dp3
S'incorrect'
p4
I8
sS'attempted'
p5
I21
sS'score'
p6
I5
sS'correct'
p7
I13
ssI2
(dp8
S'incorrect'
p9
I0
sS'attempted'
p10
I11
sS'score'
p11
I5
sS'correct'
p12
I11
ssI3
(dp13
g9
I1
sg10
I4
sg11
I2
sg12
I3
ssS'logins'
p14
I17
sS'currentSession'
p15
(dp16
I1
(dp17
S'incorrect'
p18
I0
sS'attempted'
p19
I2
sS'score'
p20
I0
sS'correct'
p21
I2
ssI3
(dp22
g18
I0
sg19
I1
sg20
I1
sg21
I1
sssS'activeDigits'
p23
c__builtin__
set
p24
((lp25
I1
aI2
aI3
atp26
Rp27
sS'TotalScore'
p28
F75.0
ssS'j'
p29
(dp30
I1
(dp31
S'incorrect'
p32
I0
sS'attempted'
p33
I5
sS'score'
p34
I5
sS'correct'
p35
I5
ssI2
(dp36
S'incorrect'
p37
I0
sS'attempted'
p38
I3
sS'score'
p39
I3
sS'correct'
p40
I3
ssI3
(dp41
g37
I0
sg38
I1
sg39
I1
sg40
I1
ssS'logins'
p42
I2
sS'currentSession'
p43
(dp44
I1
(dp45
g37
I0
sg38
I3
sg39
I3
sg40
I3
ssI2
(dp46
g37
I0
sg38
I3
sg39
I3
sg40
I3
ssI3
(dp47
g37
I0
sg38
I1
sg39
I1
sg40
I1
sssS'activeDigits'
p48
g24
((lp49
I1
aI2
aI3
atp50
Rp51
sS'TotalScore'
p52
F100.0
ssS't'
p53
(dp54
I1
(dp55
S'incorrect'
p56
I1
sS'attempted'
p57
I5
sS'score'
p58
I4
sS'correct'
p59
I4
ssI2
(dp60
S'incorrect'
p61
I0
sS'attempted'
p62
I1
sS'score'
p63
I1
sS'correct'
p64
I1
ssS'logins'
p65
I3
sS'currentSession'
p66
(dp67
I1
(dp68
g61
I0
sg62
I1
sg63
I1
sg64
I1
ssI2
(dp69
g61
I0
sg62
I1
sg63
I1
sg64
I1
sssS'activeDigits'
p70
g24
((lp71
I1
aI2
atp72
Rp73
sS'TotalScore'
p74
F83.33333333333334
ssS'bob'
p75
(dp76
S'logins'
p77
I2
sS'activeDigits'
p78
g24
((lp79
I1
atp80
Rp81
sS'TotalScore'
p82
F66.66666666666666
sS'currentSession'
p83
(dp84
I1
(dp85
S'incorrect'
p86
I1
sS'attempted'
p87
I3
sS'score'
p88
I2
sS'correct'
p89
I2
sssI1
(dp90
g86
I1
sg87
I3
sg88
I2
sg89
I2
sssS'\x1b[A\x1b[A'
p91
(dp92
S'logins'
p93
I1
sS'activeDigits'
p94
g24
((lp95
I1
atp96
Rp97
sS'TotalScore'
p98
F0.0
sS'currentSession'
p99
(dp100
I1
(dp101
S'incorrect'
p102
I1
sS'attempted'
p103
I1
sS'score'
p104
I0
sS'correct'
p105
I0
sssI1
(dp106
g102
I1
sg103
I1
sg104
I0
sg105
I0
sssS'tripp'
p107
(dp108
I1
(dp109
S'incorrect'
p110
I2
sS'attempted'
p111
I5
sS'score'
p112
I3
sS'correct'
p113
I3
ssI2
(dp114
S'incorrect'
p115
I1
sS'attempted'
p116
I2
sS'score'
p117
I0
sS'correct'
p118
I1
ssS'logins'
p119
I3
sS'currentSession'
p120
(dp121
I1
(dp122
g115
I1
sg116
I4
sg117
I3
sg118
I3
ssI2
(dp123
g115
I1
sg116
I2
sg117
I0
sg118
I1
sssS'activeDigits'
p124
g24
((lp125
I1
aI2
atp126
Rp127
sS'TotalScore'
p128
F57.14285714285714
ss.