(dp0
S'jimmy'
p1
(dp2
S'logins'
p3
I1
sS'activeDigits'
p4
c__builtin__
set
p5
((lp6
I1
atp7
Rp8
sS'TotalScore'
p9
I0
sS'currentSession'
p10
(dp11
ssS'jimbo'
p12
(dp13
I1
(dp14
S'incorrect'
p15
I1
sS'attempted'
p16
I7
sS'score'
p17
I5
sS'correct'
p18
I6
ssI2
(dp19
S'incorrect'
p20
I0
sS'attempted'
p21
I1
sS'score'
p22
I1
sS'correct'
p23
I1
ssS'logins'
p24
I11
sS'currentSession'
p25
(dp26
I1
(dp27
g20
I0
sg21
I5
sg22
I5
sg23
I5
ssI2
(dp28
g20
I0
sg21
I1
sg22
I1
sg23
I1
sssS'activeDigits'
p29
g5
((lp30
I1
aI2
atp31
Rp32
sS'TotalScore'
p33
F87.5
ssS'jimbno'
p34
(dp35
S'logins'
p36
I1
sS'activeDigits'
p37
g5
((lp38
I1
atp39
Rp40
sS'TotalScore'
p41
I0
sS'currentSession'
p42
(dp43
ssS'jim'
p44
(dp45
S'logins'
p46
I2
sS'activeDigits'
p47
g5
((lp48
I1
atp49
Rp50
sS'TotalScore'
p51
F66.66666666666666
sS'currentSession'
p52
(dp53
I1
(dp54
S'incorrect'
p55
I1
sS'attempted'
p56
I3
sS'score'
p57
I1
sS'correct'
p58
I2
sssI1
(dp59
g55
I1
sg56
I3
sg57
I1
sg58
I2
sssS'jimboi'
p60
(dp61
S'logins'
p62
I1
sS'activeDigits'
p63
g5
((lp64
I1
atp65
Rp66
sS'TotalScore'
p67
I0
sS'currentSession'
p68
(dp69
ssS'tim'
p70
(dp71
I1
(dp72
S'incorrect'
p73
I0
sS'attempted'
p74
I5
sS'score'
p75
I5
sS'correct'
p76
I5
ssI2
(dp77
g73
I2
sg74
I3
sg75
I0
sg76
I1
ssS'logins'
p78
I1
sS'currentSession'
p79
(dp80
I1
(dp81
g73
I0
sg74
I5
sg75
I5
sg76
I5
ssI2
(dp82
g73
I2
sg74
I3
sg75
I0
sg76
I1
sssS'activeDigits'
p83
g5
((lp84
I1
aI2
atp85
Rp86
sS'TotalScore'
p87
F75.0
ssS'Bilbo'
p88
(dp89
I1
(dp90
S'incorrect'
p91
I1
sS'attempted'
p92
I6
sS'score'
p93
I4
sS'correct'
p94
I5
ssI2
(dp95
g91
I2
sg92
I4
sg93
I1
sg94
I2
ssS'logins'
p96
I1
sS'currentSession'
p97
(dp98
I1
(dp99
g91
I1
sg92
I6
sg93
I4
sg94
I5
ssI2
(dp100
g91
I2
sg92
I4
sg93
I1
sg94
I2
sssS'activeDigits'
p101
g5
((lp102
I1
aI2
atp103
Rp104
sS'TotalScore'
p105
F70.0
ssS'bob'
p106
(dp107
I1
(dp108
S'incorrect'
p109
I3
sS'attempted'
p110
I10
sS'score'
p111
I5
sS'correct'
p112
I7
ssI2
(dp113
S'incorrect'
p114
I0
sS'attempted'
p115
I3
sS'score'
p116
I3
sS'correct'
p117
I3
ssS'logins'
p118
I2
sS'currentSession'
p119
(dp120
I1
(dp121
g114
I0
sg115
I5
sg116
I5
sg117
I5
ssI2
(dp122
g114
I0
sg115
I3
sg116
I3
sg117
I3
sssS'activeDigits'
p123
g5
((lp124
I1
aI2
atp125
Rp126
sS'TotalScore'
p127
F76.92307692307693
ssS'john'
p128
(dp129
I1
(dp130
S'incorrect'
p131
I1
sS'attempted'
p132
I8
sS'score'
p133
I5
sS'correct'
p134
I7
ssI2
(dp135
g131
I0
sg132
I2
sg133
I2
sg134
I2
ssS'logins'
p136
I6
sS'currentSession'
p137
(dp138
I1
(dp139
S'incorrect'
p140
I0
sS'attempted'
p141
I1
sS'score'
p142
I0
sS'correct'
p143
I1
ssI2
(dp144
g140
I0
sg141
I1
sg142
I1
sg143
I1
sssS'activeDigits'
p145
g5
((lp146
I1
aI2
atp147
Rp148
sS'TotalScore'
p149
F90.0
ssS'tripp'
p150
(dp151
I1
(dp152
S'incorrect'
p153
I1
sS'attempted'
p154
I10
sS'score'
p155
I5
sS'correct'
p156
I9
ssI2
(dp157
S'incorrect'
p158
I1
sS'attempted'
p159
I11
sS'score'
p160
I5
sS'correct'
p161
I10
ssI3
(dp162
S'incorrect'
p163
I0
sS'attempted'
p164
I7
sS'score'
p165
I5
sS'correct'
p166
I7
ssI4
(dp167
S'incorrect'
p168
I1
sS'attempted'
p169
I5
sS'score'
p170
I4
sS'correct'
p171
I4
ssI5
(dp172
g168
I0
sg169
I2
sg170
I2
sg171
I2
ssS'logins'
p173
I7
sS'currentSession'
p174
(dp175
sS'activeDigits'
p176
g5
((lp177
I1
aI2
aI3
aI4
aI5
atp178
Rp179
sS'TotalScore'
p180
F91.42857142857143
ssS'johmn'
p181
(dp182
S'logins'
p183
I1
sS'activeDigits'
p184
g5
((lp185
I1
atp186
Rp187
sS'TotalScore'
p188
I0
sS'currentSession'
p189
(dp190
ss.